(lp0
(dp1
Vdomain
p2
V.dianzhentan.com
p3
sVsecure
p4
I00
sVvalue
p5
V1516697558
p6
sVexpiry
p7
I1548738331
sVpath
p8
V/
p9
sVhttpOnly
p10
I00
sVname
p11
VHm_lvt_5189d524a0d31440e29a1b1c3956843a
p12
sa(dp13
Vdomain
p14
V.dianzhentan.com
p15
sVname
p16
VHm_lpvt_5189d524a0d31440e29a1b1c3956843a
p17
sVvalue
p18
V1517202332
p19
sVpath
p20
g9
sVhttpOnly
p21
I00
sVsecure
p22
I00
sa(dp23
Vdomain
p24
V.dianzhentan.com
p25
sVname
p26
Vsession
p27
sVvalue
p28
Vbb182fd7-645f-4721-8121-5639d79ed663
p29
sVpath
p30
g9
sVhttpOnly
p31
I01
sVsecure
p32
I00
sa.